; Function Attrs: nofree norecurse nosync nounwind memory(argmem: readwrite) uwtable
define internal void @blend_and_8bit(ptr noundef readonly captures(none) %0, i64 noundef %1, ptr noundef readonly captures(none) %2, i64 noundef %3, ptr noundef writeonly captures(none) %4, i64 noundef %5, i64 noundef %6, i64 noundef %7, ptr noundef readonly captures(none) %8, ptr readnone captures(none) %9) #6 {
  %11 = getelementptr inbounds nuw i8, ptr %8, i64 8
  %12 = load double, ptr %11, align 8, !tbaa !70
  %13 = fptrunc nsz double %12 to float
  %14 = icmp sgt i64 %7, 0
  %15 = icmp sgt i64 %6, 0
  %or.cond = and i1 %14, %15
  br i1 %or.cond, label %.preheader.us, label %._crit_edge39

.preheader.us:                                    ; preds = %10, %._crit_edge.us
  %indvars.iv43 = phi i64 [ %indvars.iv.next44, %._crit_edge.us ], [ 0, %10 ]
  %.03037.us = phi ptr [ %30, %._crit_edge.us ], [ %4, %10 ]
  %.03136.us = phi ptr [ %32, %._crit_edge.us ], [ %2, %10 ]
  %.03235.us = phi ptr [ %31, %._crit_edge.us ], [ %0, %10 ]
  br label %16

16:                                               ; preds = %.preheader.us, %16
  %indvars.iv = phi i64 [ 0, %.preheader.us ], [ %indvars.iv.next, %16 ]
  %17 = getelementptr inbounds nuw i8, ptr %.03235.us, i64 %indvars.iv
  %18 = load i8, ptr %17, align 1, !tbaa !89
  %19 = zext i8 %18 to i32
  %20 = uitofp i8 %18 to float
  %21 = getelementptr inbounds nuw i8, ptr %.03136.us, i64 %indvars.iv
  %22 = load i8, ptr %21, align 1, !tbaa !89
  %23 = and i8 %22, %18
  %24 = zext i8 %23 to i32
  %25 = sub nsw i32 %24, %19
  %26 = sitofp i32 %25 to float
  %27 = tail call nsz float @llvm.fmuladd.f32(float %26, float %13, float %20)
  %28 = fptoui float %27 to i8
  %29 = getelementptr inbounds nuw i8, ptr %.03037.us, i64 %indvars.iv
  store i8 %28, ptr %29, align 1, !tbaa !89
  %indvars.iv.next = add nuw nsw i64 %indvars.iv, 1
  %exitcond.not = icmp eq i64 %indvars.iv.next, %6
  br i1 %exitcond.not, label %._crit_edge.us, label %16, !llvm.loop !96

._crit_edge.us:                                   ; preds = %16
  %30 = getelementptr inbounds i8, ptr %.03037.us, i64 %5
  %31 = getelementptr inbounds i8, ptr %.03235.us, i64 %1
  %32 = getelementptr inbounds i8, ptr %.03136.us, i64 %3
  %indvars.iv.next44 = add nuw nsw i64 %indvars.iv43, 1
  %exitcond46.not = icmp eq i64 %indvars.iv.next44, %7
  br i1 %exitcond46.not, label %._crit_edge39, label %.preheader.us, !llvm.loop !97

._crit_edge39:                                    ; preds = %._crit_edge.us, %10
  ret void
}